; Function Attrs: mustprogress nounwind uwtable
define internal fastcc noundef zeroext i1 @_ZN12_GLOBAL__N_123ZeroOutInDeallocRemover6isZeroEPN5clang4ExprE(ptr nocapture noundef nonnull readonly align 8 dereferenceable(72) %0, ptr noundef nonnull %1) unnamed_addr #0 align 2 {
  %3 = load ptr, ptr %0, align 8
  %4 = load ptr, ptr %3, align 8
  %5 = tail call noundef i32 @_ZNK5clang4Expr21isNullPointerConstantERNS_10ASTContextENS0_34NullPointerConstantValueDependenceE(ptr noundef nonnull align 8 dereferenceable(16) %1, ptr noundef nonnull align 8 dereferenceable(23096) %4, i32 noundef 1) #17
  %.not = icmp eq i32 %5, 0
  br i1 %.not, label %6, label %_ZN12_GLOBAL__N_123ZeroOutInDeallocRemover17isZeroingPropIvarEPN5clang4ExprE.exit

6:                                                ; preds = %2
  %7 = tail call noundef ptr @_ZN5clang4Expr12IgnoreParensEv(ptr noundef nonnull align 8 dereferenceable(16) %1) #21
  %8 = load i8, ptr %7, align 8
  %9 = and i8 %8, -2
  %spec.select.i.i.i.i.i.i.i.i.not = icmp eq i8 %9, 118
  br i1 %spec.select.i.i.i.i.i.i.i.i.not, label %10, label %12

10:                                               ; preds = %6
  %11 = tail call fastcc noundef zeroext i1 @_ZN12_GLOBAL__N_123ZeroOutInDeallocRemover17isZeroingPropIvarEPN5clang14BinaryOperatorE(ptr noundef nonnull align 8 dereferenceable(72) %0, ptr noundef nonnull %7)
  br label %_ZN12_GLOBAL__N_123ZeroOutInDeallocRemover17isZeroingPropIvarEPN5clang4ExprE.exit

12:                                               ; preds = %6
  %.not7 = icmp eq i8 %8, 18
  br i1 %.not7, label %13, label %_ZN12_GLOBAL__N_123ZeroOutInDeallocRemover17isZeroingPropIvarEPN5clang4ExprE.exit

13:                                               ; preds = %12
  %14 = tail call fastcc noundef zeroext i1 @_ZN12_GLOBAL__N_123ZeroOutInDeallocRemover17isZeroingPropIvarEPN5clang16PseudoObjectExprE(ptr noundef nonnull align 8 dereferenceable(72) %0, ptr noundef nonnull %7)
  br label %_ZN12_GLOBAL__N_123ZeroOutInDeallocRemover17isZeroingPropIvarEPN5clang4ExprE.exit

_ZN12_GLOBAL__N_123ZeroOutInDeallocRemover17isZeroingPropIvarEPN5clang4ExprE.exit: ; preds = %13, %12, %10, %2
  %.0 = phi i1 [ true, %2 ], [ %11, %10 ], [ %14, %13 ], [ false, %12 ]
  ret i1 %.0
}